target datalayout = "e-m:e-p270:32:32-p271:32:32-p272:64:64-i64:64-i128:128-f80:128-n8:16:32:64-S128"
target triple = "x86_64-pc-linux-gnu"

%"class.pxrInternal_v0_24__pxrReserved__::GfMatrix4f" = type { %"class.pxrInternal_v0_24__pxrReserved__::GfMatrixData" }
%"class.pxrInternal_v0_24__pxrReserved__::GfMatrixData" = type { [16 x float] }
%"class.pxrInternal_v0_24__pxrReserved__::GfVec3d" = type { [3 x double] }
%"class.pxrInternal_v0_24__pxrReserved__::TfCallContext" = type <{ ptr, ptr, i64, ptr, i8, [7 x i8] }>

@.str.6 = private unnamed_addr constant [118 x i8] c"generated/home/dtcxzyw/WorkSpace/Projects/compilers/llvm-opt-benchmark/bench/openusd/OpenUSD/pxr/base/gf/matrix4f.cpp\00", align 1
@__func__._ZN32pxrInternal_v0_24__pxrReserved__10GfMatrix4f14OrthonormalizeEb = private unnamed_addr constant [15 x i8] c"Orthonormalize\00", align 1
@__PRETTY_FUNCTION__._ZN32pxrInternal_v0_24__pxrReserved__10GfMatrix4f14OrthonormalizeEb = private unnamed_addr constant [72 x i8] c"bool pxrInternal_v0_24__pxrReserved__::GfMatrix4f::Orthonormalize(bool)\00", align 1
@.str.7 = private unnamed_addr constant [68 x i8] c"OrthogonalizeBasis did not converge, matrix may not be orthonormal.\00", align 1

; Function Attrs: mustprogress nounwind uwtable
define linkonce_odr void @_ZN32pxrInternal_v0_24__pxrReserved__13TfCallContextC2EPKcS2_mS2_(ptr noundef nonnull align 8 dereferenceable(33) %0, ptr noundef %1, ptr noundef %2, i64 noundef %3, ptr noundef %4) unnamed_addr #2 comdat align 2 {
  %6 = alloca ptr, align 8
  %7 = alloca ptr, align 8
  %8 = alloca ptr, align 8
  %9 = alloca i64, align 8
  %10 = alloca ptr, align 8
  store ptr %0, ptr %6, align 8
  store ptr %1, ptr %7, align 8
  store ptr %2, ptr %8, align 8
  store i64 %3, ptr %9, align 8
  store ptr %4, ptr %10, align 8
  %11 = load ptr, ptr %6, align 8
  %12 = getelementptr inbounds nuw %"class.pxrInternal_v0_24__pxrReserved__::TfCallContext", ptr %11, i32 0, i32 0
  %13 = load ptr, ptr %7, align 8
  store ptr %13, ptr %12, align 8
  %14 = getelementptr inbounds nuw %"class.pxrInternal_v0_24__pxrReserved__::TfCallContext", ptr %11, i32 0, i32 1
  %15 = load ptr, ptr %8, align 8
  store ptr %15, ptr %14, align 8
  %16 = getelementptr inbounds nuw %"class.pxrInternal_v0_24__pxrReserved__::TfCallContext", ptr %11, i32 0, i32 2
  %17 = load i64, ptr %9, align 8
  store i64 %17, ptr %16, align 8
  %18 = getelementptr inbounds nuw %"class.pxrInternal_v0_24__pxrReserved__::TfCallContext", ptr %11, i32 0, i32 3
  %19 = load ptr, ptr %10, align 8
  store ptr %19, ptr %18, align 8
  %20 = getelementptr inbounds nuw %"class.pxrInternal_v0_24__pxrReserved__::TfCallContext", ptr %11, i32 0, i32 4
  store i8 0, ptr %20, align 8
  ret void
}

; Function Attrs: mustprogress nounwind uwtable
define linkonce_odr noundef zeroext i1 @_ZN32pxrInternal_v0_24__pxrReserved__9GfIsCloseEddd(double noundef %0, double noundef %1, double noundef %2) #2 comdat {
  %4 = alloca double, align 8
  %5 = alloca double, align 8
  %6 = alloca double, align 8
  store double %0, ptr %4, align 8
  store double %1, ptr %5, align 8
  store double %2, ptr %6, align 8
  %7 = load double, ptr %4, align 8
  %8 = load double, ptr %5, align 8
  %9 = fsub double %7, %8
  %10 = call double @llvm.fabs.f64(double %9)
  %11 = load double, ptr %6, align 8
  %12 = fcmp olt double %10, %11
  ret i1 %12
}

; Function Attrs: mustprogress nounwind uwtable
define linkonce_odr noundef nonnull align 8 dereferenceable(8) ptr @_ZN32pxrInternal_v0_24__pxrReserved__7GfVec3dixEm(ptr noundef nonnull align 8 dereferenceable(24) %0, i64 noundef %1) #2 comdat align 2 {
  %3 = alloca ptr, align 8
  %4 = alloca i64, align 8
  store ptr %0, ptr %3, align 8
  store i64 %1, ptr %4, align 8
  %5 = load ptr, ptr %3, align 8
  %6 = getelementptr inbounds nuw %"class.pxrInternal_v0_24__pxrReserved__::GfVec3d", ptr %5, i32 0, i32 0
  %7 = load i64, ptr %4, align 8
  %8 = getelementptr inbounds [3 x double], ptr %6, i64 0, i64 %7
  ret ptr %8
}

; Function Attrs: mustprogress nounwind uwtable
define linkonce_odr void @_ZN32pxrInternal_v0_24__pxrReserved__7GfVec3dC2Eddd(ptr noundef nonnull align 8 dereferenceable(24) %0, double noundef %1, double noundef %2, double noundef %3) unnamed_addr #2 comdat align 2 {
  %5 = alloca ptr, align 8
  %6 = alloca double, align 8
  %7 = alloca double, align 8
  %8 = alloca double, align 8
  store ptr %0, ptr %5, align 8
  store double %1, ptr %6, align 8
  store double %2, ptr %7, align 8
  store double %3, ptr %8, align 8
  %9 = load ptr, ptr %5, align 8
  %10 = getelementptr inbounds nuw %"class.pxrInternal_v0_24__pxrReserved__::GfVec3d", ptr %9, i32 0, i32 0
  %11 = load double, ptr %6, align 8
  store double %11, ptr %10, align 8
  %12 = getelementptr inbounds double, ptr %10, i64 1
  %13 = load double, ptr %7, align 8
  store double %13, ptr %12, align 8
  %14 = getelementptr inbounds double, ptr %10, i64 2
  %15 = load double, ptr %8, align 8
  store double %15, ptr %14, align 8
  ret void
}

; Function Attrs: mustprogress nounwind uwtable
define linkonce_odr noundef ptr @_ZN32pxrInternal_v0_24__pxrReserved__12GfMatrixDataIfLi4ELi4EEixEi(ptr noundef nonnull align 4 dereferenceable(64) %0, i32 noundef %1) #2 comdat align 2 {
  %3 = alloca ptr, align 8
  %4 = alloca i32, align 4
  store ptr %0, ptr %3, align 8
  store i32 %1, ptr %4, align 4
  %5 = load ptr, ptr %3, align 8
  %6 = getelementptr inbounds nuw %"class.pxrInternal_v0_24__pxrReserved__::GfMatrixData", ptr %5, i32 0, i32 0
  %7 = getelementptr inbounds [16 x float], ptr %6, i64 0, i64 0
  %8 = load i32, ptr %4, align 4
  %9 = mul nsw i32 %8, 4
  %10 = sext i32 %9 to i64
  %11 = getelementptr inbounds float, ptr %7, i64 %10
  ret ptr %11
}

; Function Attrs: mustprogress uwtable
define noundef zeroext i1 @_ZN32pxrInternal_v0_24__pxrReserved__10GfMatrix4f14OrthonormalizeEb(ptr noundef nonnull align 4 dereferenceable(64) %0, i1 noundef zeroext %1) #0 align 2 {
  %3 = alloca ptr, align 8
  %4 = alloca i8, align 1
  %5 = alloca %"class.pxrInternal_v0_24__pxrReserved__::GfVec3d", align 8
  %6 = alloca %"class.pxrInternal_v0_24__pxrReserved__::GfVec3d", align 8
  %7 = alloca %"class.pxrInternal_v0_24__pxrReserved__::GfVec3d", align 8
  %8 = alloca i8, align 1
  %9 = alloca %"class.pxrInternal_v0_24__pxrReserved__::TfCallContext", align 8
  store ptr %0, ptr %3, align 8
  %10 = zext i1 %1 to i8
  store i8 %10, ptr %4, align 1
  %11 = load ptr, ptr %3, align 8
  %12 = getelementptr inbounds nuw %"class.pxrInternal_v0_24__pxrReserved__::GfMatrix4f", ptr %11, i32 0, i32 0
  %13 = call noundef ptr @_ZN32pxrInternal_v0_24__pxrReserved__12GfMatrixDataIfLi4ELi4EEixEi(ptr noundef nonnull align 4 dereferenceable(64) %12, i32 noundef 0)
  %14 = getelementptr inbounds float, ptr %13, i64 0
  %15 = load float, ptr %14, align 4
  %16 = fpext float %15 to double
  %17 = getelementptr inbounds nuw %"class.pxrInternal_v0_24__pxrReserved__::GfMatrix4f", ptr %11, i32 0, i32 0
  %18 = call noundef ptr @_ZN32pxrInternal_v0_24__pxrReserved__12GfMatrixDataIfLi4ELi4EEixEi(ptr noundef nonnull align 4 dereferenceable(64) %17, i32 noundef 0)
  %19 = getelementptr inbounds float, ptr %18, i64 1
  %20 = load float, ptr %19, align 4
  %21 = fpext float %20 to double
  %22 = getelementptr inbounds nuw %"class.pxrInternal_v0_24__pxrReserved__::GfMatrix4f", ptr %11, i32 0, i32 0
  %23 = call noundef ptr @_ZN32pxrInternal_v0_24__pxrReserved__12GfMatrixDataIfLi4ELi4EEixEi(ptr noundef nonnull align 4 dereferenceable(64) %22, i32 noundef 0)
  %24 = getelementptr inbounds float, ptr %23, i64 2
  %25 = load float, ptr %24, align 4
  %26 = fpext float %25 to double
  call void @_ZN32pxrInternal_v0_24__pxrReserved__7GfVec3dC2Eddd(ptr noundef nonnull align 8 dereferenceable(24) %5, double noundef %16, double noundef %21, double noundef %26)
  %27 = getelementptr inbounds nuw %"class.pxrInternal_v0_24__pxrReserved__::GfMatrix4f", ptr %11, i32 0, i32 0
  %28 = call noundef ptr @_ZN32pxrInternal_v0_24__pxrReserved__12GfMatrixDataIfLi4ELi4EEixEi(ptr noundef nonnull align 4 dereferenceable(64) %27, i32 noundef 1)
  %29 = getelementptr inbounds float, ptr %28, i64 0
  %30 = load float, ptr %29, align 4
  %31 = fpext float %30 to double
  %32 = getelementptr inbounds nuw %"class.pxrInternal_v0_24__pxrReserved__::GfMatrix4f", ptr %11, i32 0, i32 0
  %33 = call noundef ptr @_ZN32pxrInternal_v0_24__pxrReserved__12GfMatrixDataIfLi4ELi4EEixEi(ptr noundef nonnull align 4 dereferenceable(64) %32, i32 noundef 1)
  %34 = getelementptr inbounds float, ptr %33, i64 1
  %35 = load float, ptr %34, align 4
  %36 = fpext float %35 to double
  %37 = getelementptr inbounds nuw %"class.pxrInternal_v0_24__pxrReserved__::GfMatrix4f", ptr %11, i32 0, i32 0
  %38 = call noundef ptr @_ZN32pxrInternal_v0_24__pxrReserved__12GfMatrixDataIfLi4ELi4EEixEi(ptr noundef nonnull align 4 dereferenceable(64) %37, i32 noundef 1)
  %39 = getelementptr inbounds float, ptr %38, i64 2
  %40 = load float, ptr %39, align 4
  %41 = fpext float %40 to double
  call void @_ZN32pxrInternal_v0_24__pxrReserved__7GfVec3dC2Eddd(ptr noundef nonnull align 8 dereferenceable(24) %6, double noundef %31, double noundef %36, double noundef %41)
  %42 = getelementptr inbounds nuw %"class.pxrInternal_v0_24__pxrReserved__::GfMatrix4f", ptr %11, i32 0, i32 0
  %43 = call noundef ptr @_ZN32pxrInternal_v0_24__pxrReserved__12GfMatrixDataIfLi4ELi4EEixEi(ptr noundef nonnull align 4 dereferenceable(64) %42, i32 noundef 2)
  %44 = getelementptr inbounds float, ptr %43, i64 0
  %45 = load float, ptr %44, align 4
  %46 = fpext float %45 to double
  %47 = getelementptr inbounds nuw %"class.pxrInternal_v0_24__pxrReserved__::GfMatrix4f", ptr %11, i32 0, i32 0
  %48 = call noundef ptr @_ZN32pxrInternal_v0_24__pxrReserved__12GfMatrixDataIfLi4ELi4EEixEi(ptr noundef nonnull align 4 dereferenceable(64) %47, i32 noundef 2)
  %49 = getelementptr inbounds float, ptr %48, i64 1
  %50 = load float, ptr %49, align 4
  %51 = fpext float %50 to double
  %52 = getelementptr inbounds nuw %"class.pxrInternal_v0_24__pxrReserved__::GfMatrix4f", ptr %11, i32 0, i32 0
  %53 = call noundef ptr @_ZN32pxrInternal_v0_24__pxrReserved__12GfMatrixDataIfLi4ELi4EEixEi(ptr noundef nonnull align 4 dereferenceable(64) %52, i32 noundef 2)
  %54 = getelementptr inbounds float, ptr %53, i64 2
  %55 = load float, ptr %54, align 4
  %56 = fpext float %55 to double
  call void @_ZN32pxrInternal_v0_24__pxrReserved__7GfVec3dC2Eddd(ptr noundef nonnull align 8 dereferenceable(24) %7, double noundef %46, double noundef %51, double noundef %56)
  %57 = call noundef zeroext i1 @_ZN32pxrInternal_v0_24__pxrReserved__7GfVec3d18OrthogonalizeBasisEPS0_S1_S1_bd(ptr noundef %5, ptr noundef %6, ptr noundef %7, i1 noundef zeroext true, double noundef 0x3EB0C6F7A0B5ED8D)
  %58 = zext i1 %57 to i8
  store i8 %58, ptr %8, align 1
  %59 = call noundef nonnull align 8 dereferenceable(8) ptr @_ZN32pxrInternal_v0_24__pxrReserved__7GfVec3dixEm(ptr noundef nonnull align 8 dereferenceable(24) %5, i64 noundef 0)
  %60 = load double, ptr %59, align 8
  %61 = fptrunc double %60 to float
  %62 = getelementptr inbounds nuw %"class.pxrInternal_v0_24__pxrReserved__::GfMatrix4f", ptr %11, i32 0, i32 0
  %63 = call noundef ptr @_ZN32pxrInternal_v0_24__pxrReserved__12GfMatrixDataIfLi4ELi4EEixEi(ptr noundef nonnull align 4 dereferenceable(64) %62, i32 noundef 0)
  %64 = getelementptr inbounds float, ptr %63, i64 0
  store float %61, ptr %64, align 4
  %65 = call noundef nonnull align 8 dereferenceable(8) ptr @_ZN32pxrInternal_v0_24__pxrReserved__7GfVec3dixEm(ptr noundef nonnull align 8 dereferenceable(24) %5, i64 noundef 1)
  %66 = load double, ptr %65, align 8
  %67 = fptrunc double %66 to float
  %68 = getelementptr inbounds nuw %"class.pxrInternal_v0_24__pxrReserved__::GfMatrix4f", ptr %11, i32 0, i32 0
  %69 = call noundef ptr @_ZN32pxrInternal_v0_24__pxrReserved__12GfMatrixDataIfLi4ELi4EEixEi(ptr noundef nonnull align 4 dereferenceable(64) %68, i32 noundef 0)
  %70 = getelementptr inbounds float, ptr %69, i64 1
  store float %67, ptr %70, align 4
  %71 = call noundef nonnull align 8 dereferenceable(8) ptr @_ZN32pxrInternal_v0_24__pxrReserved__7GfVec3dixEm(ptr noundef nonnull align 8 dereferenceable(24) %5, i64 noundef 2)
  %72 = load double, ptr %71, align 8
  %73 = fptrunc double %72 to float
  %74 = getelementptr inbounds nuw %"class.pxrInternal_v0_24__pxrReserved__::GfMatrix4f", ptr %11, i32 0, i32 0
  %75 = call noundef ptr @_ZN32pxrInternal_v0_24__pxrReserved__12GfMatrixDataIfLi4ELi4EEixEi(ptr noundef nonnull align 4 dereferenceable(64) %74, i32 noundef 0)
  %76 = getelementptr inbounds float, ptr %75, i64 2
  store float %73, ptr %76, align 4
  %77 = call noundef nonnull align 8 dereferenceable(8) ptr @_ZN32pxrInternal_v0_24__pxrReserved__7GfVec3dixEm(ptr noundef nonnull align 8 dereferenceable(24) %6, i64 noundef 0)
  %78 = load double, ptr %77, align 8
  %79 = fptrunc double %78 to float
  %80 = getelementptr inbounds nuw %"class.pxrInternal_v0_24__pxrReserved__::GfMatrix4f", ptr %11, i32 0, i32 0
  %81 = call noundef ptr @_ZN32pxrInternal_v0_24__pxrReserved__12GfMatrixDataIfLi4ELi4EEixEi(ptr noundef nonnull align 4 dereferenceable(64) %80, i32 noundef 1)
  %82 = getelementptr inbounds float, ptr %81, i64 0
  store float %79, ptr %82, align 4
  %83 = call noundef nonnull align 8 dereferenceable(8) ptr @_ZN32pxrInternal_v0_24__pxrReserved__7GfVec3dixEm(ptr noundef nonnull align 8 dereferenceable(24) %6, i64 noundef 1)
  %84 = load double, ptr %83, align 8
  %85 = fptrunc double %84 to float
  %86 = getelementptr inbounds nuw %"class.pxrInternal_v0_24__pxrReserved__::GfMatrix4f", ptr %11, i32 0, i32 0
  %87 = call noundef ptr @_ZN32pxrInternal_v0_24__pxrReserved__12GfMatrixDataIfLi4ELi4EEixEi(ptr noundef nonnull align 4 dereferenceable(64) %86, i32 noundef 1)
  %88 = getelementptr inbounds float, ptr %87, i64 1
  store float %85, ptr %88, align 4
  %89 = call noundef nonnull align 8 dereferenceable(8) ptr @_ZN32pxrInternal_v0_24__pxrReserved__7GfVec3dixEm(ptr noundef nonnull align 8 dereferenceable(24) %6, i64 noundef 2)
  %90 = load double, ptr %89, align 8
  %91 = fptrunc double %90 to float
  %92 = getelementptr inbounds nuw %"class.pxrInternal_v0_24__pxrReserved__::GfMatrix4f", ptr %11, i32 0, i32 0
  %93 = call noundef ptr @_ZN32pxrInternal_v0_24__pxrReserved__12GfMatrixDataIfLi4ELi4EEixEi(ptr noundef nonnull align 4 dereferenceable(64) %92, i32 noundef 1)
  %94 = getelementptr inbounds float, ptr %93, i64 2
  store float %91, ptr %94, align 4
  %95 = call noundef nonnull align 8 dereferenceable(8) ptr @_ZN32pxrInternal_v0_24__pxrReserved__7GfVec3dixEm(ptr noundef nonnull align 8 dereferenceable(24) %7, i64 noundef 0)
  %96 = load double, ptr %95, align 8
  %97 = fptrunc double %96 to float
  %98 = getelementptr inbounds nuw %"class.pxrInternal_v0_24__pxrReserved__::GfMatrix4f", ptr %11, i32 0, i32 0
  %99 = call noundef ptr @_ZN32pxrInternal_v0_24__pxrReserved__12GfMatrixDataIfLi4ELi4EEixEi(ptr noundef nonnull align 4 dereferenceable(64) %98, i32 noundef 2)
  %100 = getelementptr inbounds float, ptr %99, i64 0
  store float %97, ptr %100, align 4
  %101 = call noundef nonnull align 8 dereferenceable(8) ptr @_ZN32pxrInternal_v0_24__pxrReserved__7GfVec3dixEm(ptr noundef nonnull align 8 dereferenceable(24) %7, i64 noundef 1)
  %102 = load double, ptr %101, align 8
  %103 = fptrunc double %102 to float
  %104 = getelementptr inbounds nuw %"class.pxrInternal_v0_24__pxrReserved__::GfMatrix4f", ptr %11, i32 0, i32 0
  %105 = call noundef ptr @_ZN32pxrInternal_v0_24__pxrReserved__12GfMatrixDataIfLi4ELi4EEixEi(ptr noundef nonnull align 4 dereferenceable(64) %104, i32 noundef 2)
  %106 = getelementptr inbounds float, ptr %105, i64 1
  store float %103, ptr %106, align 4
  %107 = call noundef nonnull align 8 dereferenceable(8) ptr @_ZN32pxrInternal_v0_24__pxrReserved__7GfVec3dixEm(ptr noundef nonnull align 8 dereferenceable(24) %7, i64 noundef 2)
  %108 = load double, ptr %107, align 8
  %109 = fptrunc double %108 to float
  %110 = getelementptr inbounds nuw %"class.pxrInternal_v0_24__pxrReserved__::GfMatrix4f", ptr %11, i32 0, i32 0
  %111 = call noundef ptr @_ZN32pxrInternal_v0_24__pxrReserved__12GfMatrixDataIfLi4ELi4EEixEi(ptr noundef nonnull align 4 dereferenceable(64) %110, i32 noundef 2)
  %112 = getelementptr inbounds float, ptr %111, i64 2
  store float %109, ptr %112, align 4
  %113 = getelementptr inbounds nuw %"class.pxrInternal_v0_24__pxrReserved__::GfMatrix4f", ptr %11, i32 0, i32 0
  %114 = call noundef ptr @_ZN32pxrInternal_v0_24__pxrReserved__12GfMatrixDataIfLi4ELi4EEixEi(ptr noundef nonnull align 4 dereferenceable(64) %113, i32 noundef 3)
  %115 = getelementptr inbounds float, ptr %114, i64 3
  %116 = load float, ptr %115, align 4
  %117 = fpext float %116 to double
  %118 = fcmp une double %117, 1.000000e+00
  br i1 %118, label %119, label %157

119:                                              ; preds = %2
  %120 = getelementptr inbounds nuw %"class.pxrInternal_v0_24__pxrReserved__::GfMatrix4f", ptr %11, i32 0, i32 0
  %121 = call noundef ptr @_ZN32pxrInternal_v0_24__pxrReserved__12GfMatrixDataIfLi4ELi4EEixEi(ptr noundef nonnull align 4 dereferenceable(64) %120, i32 noundef 3)
  %122 = getelementptr inbounds float, ptr %121, i64 3
  %123 = load float, ptr %122, align 4
  %124 = fpext float %123 to double
  %125 = call noundef zeroext i1 @_ZN32pxrInternal_v0_24__pxrReserved__9GfIsCloseEddd(double noundef %124, double noundef 0.000000e+00, double noundef 1.000000e-10)
  br i1 %125, label %157, label %126

126:                                              ; preds = %119
  %127 = getelementptr inbounds nuw %"class.pxrInternal_v0_24__pxrReserved__::GfMatrix4f", ptr %11, i32 0, i32 0
  %128 = call noundef ptr @_ZN32pxrInternal_v0_24__pxrReserved__12GfMatrixDataIfLi4ELi4EEixEi(ptr noundef nonnull align 4 dereferenceable(64) %127, i32 noundef 3)
  %129 = getelementptr inbounds float, ptr %128, i64 3
  %130 = load float, ptr %129, align 4
  %131 = getelementptr inbounds nuw %"class.pxrInternal_v0_24__pxrReserved__::GfMatrix4f", ptr %11, i32 0, i32 0
  %132 = call noundef ptr @_ZN32pxrInternal_v0_24__pxrReserved__12GfMatrixDataIfLi4ELi4EEixEi(ptr noundef nonnull align 4 dereferenceable(64) %131, i32 noundef 3)
  %133 = getelementptr inbounds float, ptr %132, i64 0
  %134 = load float, ptr %133, align 4
  %135 = fdiv float %134, %130
  store float %135, ptr %133, align 4
  %136 = getelementptr inbounds nuw %"class.pxrInternal_v0_24__pxrReserved__::GfMatrix4f", ptr %11, i32 0, i32 0
  %137 = call noundef ptr @_ZN32pxrInternal_v0_24__pxrReserved__12GfMatrixDataIfLi4ELi4EEixEi(ptr noundef nonnull align 4 dereferenceable(64) %136, i32 noundef 3)
  %138 = getelementptr inbounds float, ptr %137, i64 3
  %139 = load float, ptr %138, align 4
  %140 = getelementptr inbounds nuw %"class.pxrInternal_v0_24__pxrReserved__::GfMatrix4f", ptr %11, i32 0, i32 0
  %141 = call noundef ptr @_ZN32pxrInternal_v0_24__pxrReserved__12GfMatrixDataIfLi4ELi4EEixEi(ptr noundef nonnull align 4 dereferenceable(64) %140, i32 noundef 3)
  %142 = getelementptr inbounds float, ptr %141, i64 1
  %143 = load float, ptr %142, align 4
  %144 = fdiv float %143, %139
  store float %144, ptr %142, align 4
  %145 = getelementptr inbounds nuw %"class.pxrInternal_v0_24__pxrReserved__::GfMatrix4f", ptr %11, i32 0, i32 0
  %146 = call noundef ptr @_ZN32pxrInternal_v0_24__pxrReserved__12GfMatrixDataIfLi4ELi4EEixEi(ptr noundef nonnull align 4 dereferenceable(64) %145, i32 noundef 3)
  %147 = getelementptr inbounds float, ptr %146, i64 3
  %148 = load float, ptr %147, align 4
  %149 = getelementptr inbounds nuw %"class.pxrInternal_v0_24__pxrReserved__::GfMatrix4f", ptr %11, i32 0, i32 0
  %150 = call noundef ptr @_ZN32pxrInternal_v0_24__pxrReserved__12GfMatrixDataIfLi4ELi4EEixEi(ptr noundef nonnull align 4 dereferenceable(64) %149, i32 noundef 3)
  %151 = getelementptr inbounds float, ptr %150, i64 2
  %152 = load float, ptr %151, align 4
  %153 = fdiv float %152, %148
  store float %153, ptr %151, align 4
  %154 = getelementptr inbounds nuw %"class.pxrInternal_v0_24__pxrReserved__::GfMatrix4f", ptr %11, i32 0, i32 0
  %155 = call noundef ptr @_ZN32pxrInternal_v0_24__pxrReserved__12GfMatrixDataIfLi4ELi4EEixEi(ptr noundef nonnull align 4 dereferenceable(64) %154, i32 noundef 3)
  %156 = getelementptr inbounds float, ptr %155, i64 3
  store float 1.000000e+00, ptr %156, align 4
  br label %157

157:                                              ; preds = %126, %119, %2
  %158 = load i8, ptr %8, align 1
  %159 = trunc i8 %158 to i1
  br i1 %159, label %164, label %160

160:                                              ; preds = %157
  %161 = load i8, ptr %4, align 1
  %162 = trunc i8 %161 to i1
  br i1 %162, label %163, label %164

163:                                              ; preds = %160
  call void @_ZN32pxrInternal_v0_24__pxrReserved__13TfCallContextC2EPKcS2_mS2_(ptr noundef nonnull align 8 dereferenceable(33) %9, ptr noundef @.str.6, ptr noundef @__func__._ZN32pxrInternal_v0_24__pxrReserved__10GfMatrix4f14OrthonormalizeEb, i64 noundef 478, ptr noundef @__PRETTY_FUNCTION__._ZN32pxrInternal_v0_24__pxrReserved__10GfMatrix4f14OrthonormalizeEb)
  call void (ptr, ptr, ...) @_ZN32pxrInternal_v0_24__pxrReserved__20Tf_PostWarningHelperERKNS_13TfCallContextEPKcz(ptr noundef nonnull align 8 dereferenceable(33) %9, ptr noundef @.str.7)
  br label %164

164:                                              ; preds = %163, %160, %157
  %165 = load i8, ptr %8, align 1
  %166 = trunc i8 %165 to i1
  ret i1 %166
}